target datalayout = "e-m:e-p270:32:32-p271:32:32-p272:64:64-i64:64-i128:128-f80:128-n8:16:32:64-S128"
target triple = "x86_64-pc-linux-gnu"

%struct.AVSliceThread = type { ptr, i32, i32, i32, i32, i32, %union.pthread_mutex_t, %union.pthread_cond_t, i32, i32, ptr, ptr, ptr }
%union.pthread_mutex_t = type { %struct.__pthread_mutex_s }
%struct.__pthread_mutex_s = type { i32, i32, i32, i32, i32, i16, i16, %struct.__pthread_internal_list }
%struct.__pthread_internal_list = type { ptr, ptr }
%union.pthread_cond_t = type { %struct.__pthread_cond_s }
%struct.__pthread_cond_s = type { %union.__atomic_wide_counter, %union.__atomic_wide_counter, [2 x i32], [2 x i32], i32, i32, [2 x i32] }
%union.__atomic_wide_counter = type { i64 }
%struct.WorkerContext = type { ptr, %union.pthread_mutex_t, %union.pthread_cond_t, i64, i32 }

@.str = private unnamed_addr constant [30 x i8] c"Assertion %s failed at %s:%d\0A\00", align 1
@.str.2 = private unnamed_addr constant [24 x i8] c"libavutil/slicethread.c\00", align 1
@.str.3 = private unnamed_addr constant [12 x i8] c"nb_jobs > 0\00", align 1

; Function Attrs: nounwind uwtable
define internal i32 @run_jobs(ptr noundef %0) #5 {
  %2 = alloca ptr, align 8
  %3 = alloca i32, align 4
  %4 = alloca i32, align 4
  %5 = alloca i32, align 4
  %6 = alloca i32, align 4
  %7 = alloca i32, align 4
  %8 = alloca i32, align 4
  %9 = alloca i32, align 4
  %10 = alloca i32, align 4
  store ptr %0, ptr %2, align 8, !tbaa !13
  call void @llvm.lifetime.start.p0(i64 4, ptr %3) #6
  %11 = load ptr, ptr %2, align 8, !tbaa !13
  %12 = getelementptr inbounds nuw %struct.AVSliceThread, ptr %11, i32 0, i32 3
  %13 = load i32, ptr %12, align 8, !tbaa !23
  store i32 %13, ptr %3, align 4, !tbaa !11
  call void @llvm.lifetime.start.p0(i64 4, ptr %4) #6
  %14 = load ptr, ptr %2, align 8, !tbaa !13
  %15 = getelementptr inbounds nuw %struct.AVSliceThread, ptr %14, i32 0, i32 2
  %16 = load i32, ptr %15, align 4, !tbaa !22
  store i32 %16, ptr %4, align 4, !tbaa !11
  call void @llvm.lifetime.start.p0(i64 4, ptr %5) #6
  %17 = load ptr, ptr %2, align 8, !tbaa !13
  %18 = getelementptr inbounds nuw %struct.AVSliceThread, ptr %17, i32 0, i32 4
  store i32 1, ptr %6, align 4, !tbaa !11
  %19 = load i32, ptr %6, align 4
  %20 = atomicrmw add ptr %18, i32 %19 acq_rel, align 4
  store i32 %20, ptr %7, align 4
  %21 = load i32, ptr %7, align 4, !tbaa !11
  store i32 %21, ptr %5, align 4, !tbaa !11
  call void @llvm.lifetime.start.p0(i64 4, ptr %8) #6
  %22 = load i32, ptr %5, align 4, !tbaa !11
  store i32 %22, ptr %8, align 4, !tbaa !11
  br label %23

23:                                               ; preds = %34, %1
  %24 = load ptr, ptr %2, align 8, !tbaa !13
  %25 = getelementptr inbounds nuw %struct.AVSliceThread, ptr %24, i32 0, i32 11
  %26 = load ptr, ptr %25, align 8, !tbaa !19
  %27 = load ptr, ptr %2, align 8, !tbaa !13
  %28 = getelementptr inbounds nuw %struct.AVSliceThread, ptr %27, i32 0, i32 10
  %29 = load ptr, ptr %28, align 8, !tbaa !18
  %30 = load i32, ptr %8, align 4, !tbaa !11
  %31 = load i32, ptr %5, align 4, !tbaa !11
  %32 = load i32, ptr %3, align 4, !tbaa !11
  %33 = load i32, ptr %4, align 4, !tbaa !11
  call void %26(ptr noundef %29, i32 noundef %30, i32 noundef %31, i32 noundef %32, i32 noundef %33)
  br label %34

34:                                               ; preds = %23
  %35 = load ptr, ptr %2, align 8, !tbaa !13
  %36 = getelementptr inbounds nuw %struct.AVSliceThread, ptr %35, i32 0, i32 5
  store i32 1, ptr %9, align 4, !tbaa !11
  %37 = load i32, ptr %9, align 4
  %38 = atomicrmw add ptr %36, i32 %37 acq_rel, align 8
  store i32 %38, ptr %10, align 4
  %39 = load i32, ptr %10, align 4, !tbaa !11
  store i32 %39, ptr %8, align 4, !tbaa !11
  %40 = load i32, ptr %3, align 4, !tbaa !11
  %41 = icmp ult i32 %39, %40
  br i1 %41, label %23, label %42, !llvm.loop !41

42:                                               ; preds = %34
  %43 = load i32, ptr %8, align 4, !tbaa !11
  %44 = load i32, ptr %3, align 4, !tbaa !11
  %45 = load i32, ptr %4, align 4, !tbaa !11
  %46 = add i32 %44, %45
  %47 = sub i32 %46, 1
  %48 = icmp eq i32 %43, %47
  %49 = zext i1 %48 to i32
  call void @llvm.lifetime.end.p0(i64 4, ptr %8) #6
  call void @llvm.lifetime.end.p0(i64 4, ptr %5) #6
  call void @llvm.lifetime.end.p0(i64 4, ptr %4) #6
  call void @llvm.lifetime.end.p0(i64 4, ptr %3) #6
  ret i32 %49
}

; Function Attrs: nounwind uwtable
define void @avpriv_slicethread_execute(ptr noundef %0, i32 noundef %1, i32 noundef %2) #5 {
  %4 = alloca ptr, align 8
  %5 = alloca i32, align 4
  %6 = alloca i32, align 4
  %7 = alloca i32, align 4
  %8 = alloca i32, align 4
  %9 = alloca i32, align 4
  %10 = alloca i32, align 4
  %11 = alloca i32, align 4
  %12 = alloca ptr, align 8
  store ptr %0, ptr %4, align 8, !tbaa !13
  store i32 %1, ptr %5, align 4, !tbaa !11
  store i32 %2, ptr %6, align 4, !tbaa !11
  call void @llvm.lifetime.start.p0(i64 4, ptr %7) #6
  call void @llvm.lifetime.start.p0(i64 4, ptr %8) #6
  call void @llvm.lifetime.start.p0(i64 4, ptr %9) #6
  store i32 0, ptr %9, align 4, !tbaa !11
  br label %13

13:                                               ; preds = %3
  %14 = load i32, ptr %5, align 4, !tbaa !11
  %15 = icmp sgt i32 %14, 0
  br i1 %15, label %17, label %16

16:                                               ; preds = %13
  call void (ptr, i32, ptr, ...) @av_log(ptr noundef null, i32 noundef 0, ptr noundef @.str, ptr noundef @.str.3, ptr noundef @.str.2, i32 noundef 195)
  call void @abort() #7
  unreachable

17:                                               ; preds = %13
  br label %18

18:                                               ; preds = %17
  br label %19

19:                                               ; preds = %18
  %20 = load i32, ptr %5, align 4, !tbaa !11
  %21 = load ptr, ptr %4, align 8, !tbaa !13
  %22 = getelementptr inbounds nuw %struct.AVSliceThread, ptr %21, i32 0, i32 3
  store i32 %20, ptr %22, align 8, !tbaa !23
  %23 = load i32, ptr %5, align 4, !tbaa !11
  %24 = load ptr, ptr %4, align 8, !tbaa !13
  %25 = getelementptr inbounds nuw %struct.AVSliceThread, ptr %24, i32 0, i32 1
  %26 = load i32, ptr %25, align 8, !tbaa !21
  %27 = icmp sgt i32 %23, %26
  br i1 %27, label %28, label %32

28:                                               ; preds = %19
  %29 = load ptr, ptr %4, align 8, !tbaa !13
  %30 = getelementptr inbounds nuw %struct.AVSliceThread, ptr %29, i32 0, i32 1
  %31 = load i32, ptr %30, align 8, !tbaa !21
  br label %34

32:                                               ; preds = %19
  %33 = load i32, ptr %5, align 4, !tbaa !11
  br label %34

34:                                               ; preds = %32, %28
  %35 = phi i32 [ %31, %28 ], [ %33, %32 ]
  %36 = load ptr, ptr %4, align 8, !tbaa !13
  %37 = getelementptr inbounds nuw %struct.AVSliceThread, ptr %36, i32 0, i32 2
  store i32 %35, ptr %37, align 4, !tbaa !22
  %38 = load ptr, ptr %4, align 8, !tbaa !13
  %39 = getelementptr inbounds nuw %struct.AVSliceThread, ptr %38, i32 0, i32 4
  store i32 0, ptr %10, align 4, !tbaa !11
  %40 = load i32, ptr %10, align 4
  store atomic i32 %40, ptr %39 monotonic, align 4
  %41 = load ptr, ptr %4, align 8, !tbaa !13
  %42 = getelementptr inbounds nuw %struct.AVSliceThread, ptr %41, i32 0, i32 5
  %43 = load ptr, ptr %4, align 8, !tbaa !13
  %44 = getelementptr inbounds nuw %struct.AVSliceThread, ptr %43, i32 0, i32 2
  %45 = load i32, ptr %44, align 4, !tbaa !22
  store i32 %45, ptr %11, align 4, !tbaa !11
  %46 = load i32, ptr %11, align 4
  store atomic i32 %46, ptr %42 monotonic, align 8
  %47 = load ptr, ptr %4, align 8, !tbaa !13
  %48 = getelementptr inbounds nuw %struct.AVSliceThread, ptr %47, i32 0, i32 2
  %49 = load i32, ptr %48, align 4, !tbaa !22
  store i32 %49, ptr %7, align 4, !tbaa !11
  %50 = load ptr, ptr %4, align 8, !tbaa !13
  %51 = getelementptr inbounds nuw %struct.AVSliceThread, ptr %50, i32 0, i32 12
  %52 = load ptr, ptr %51, align 8, !tbaa !20
  %53 = icmp ne ptr %52, null
  br i1 %53, label %54, label %57

54:                                               ; preds = %34
  %55 = load i32, ptr %6, align 4, !tbaa !11
  %56 = icmp ne i32 %55, 0
  br i1 %56, label %60, label %57

57:                                               ; preds = %54, %34
  %58 = load i32, ptr %7, align 4, !tbaa !11
  %59 = add nsw i32 %58, -1
  store i32 %59, ptr %7, align 4, !tbaa !11
  br label %60

60:                                               ; preds = %57, %54
  store i32 0, ptr %8, align 4, !tbaa !11
  br label %61

61:                                               ; preds = %83, %60
  %62 = load i32, ptr %8, align 4, !tbaa !11
  %63 = load i32, ptr %7, align 4, !tbaa !11
  %64 = icmp slt i32 %62, %63
  br i1 %64, label %65, label %86

65:                                               ; preds = %61
  call void @llvm.lifetime.start.p0(i64 8, ptr %12) #6
  %66 = load ptr, ptr %4, align 8, !tbaa !13
  %67 = getelementptr inbounds nuw %struct.AVSliceThread, ptr %66, i32 0, i32 0
  %68 = load ptr, ptr %67, align 8, !tbaa !15
  %69 = load i32, ptr %8, align 4, !tbaa !11
  %70 = sext i32 %69 to i64
  %71 = getelementptr inbounds %struct.WorkerContext, ptr %68, i64 %70
  store ptr %71, ptr %12, align 8, !tbaa !27
  %72 = load ptr, ptr %12, align 8, !tbaa !27
  %73 = getelementptr inbounds nuw %struct.WorkerContext, ptr %72, i32 0, i32 1
  %74 = call i32 @pthread_mutex_lock(ptr noundef %73) #6
  %75 = load ptr, ptr %12, align 8, !tbaa !27
  %76 = getelementptr inbounds nuw %struct.WorkerContext, ptr %75, i32 0, i32 4
  store i32 0, ptr %76, align 8, !tbaa !31
  %77 = load ptr, ptr %12, align 8, !tbaa !27
  %78 = getelementptr inbounds nuw %struct.WorkerContext, ptr %77, i32 0, i32 2
  %79 = call i32 @pthread_cond_signal(ptr noundef %78) #6
  %80 = load ptr, ptr %12, align 8, !tbaa !27
  %81 = getelementptr inbounds nuw %struct.WorkerContext, ptr %80, i32 0, i32 1
  %82 = call i32 @pthread_mutex_unlock(ptr noundef %81) #6
  call void @llvm.lifetime.end.p0(i64 8, ptr %12) #6
  br label %83

83:                                               ; preds = %65
  %84 = load i32, ptr %8, align 4, !tbaa !11
  %85 = add nsw i32 %84, 1
  store i32 %85, ptr %8, align 4, !tbaa !11
  br label %61, !llvm.loop !39

86:                                               ; preds = %61
  %87 = load ptr, ptr %4, align 8, !tbaa !13
  %88 = getelementptr inbounds nuw %struct.AVSliceThread, ptr %87, i32 0, i32 12
  %89 = load ptr, ptr %88, align 8, !tbaa !20
  %90 = icmp ne ptr %89, null
  br i1 %90, label %91, label %101

91:                                               ; preds = %86
  %92 = load i32, ptr %6, align 4, !tbaa !11
  %93 = icmp ne i32 %92, 0
  br i1 %93, label %94, label %101

94:                                               ; preds = %91
  %95 = load ptr, ptr %4, align 8, !tbaa !13
  %96 = getelementptr inbounds nuw %struct.AVSliceThread, ptr %95, i32 0, i32 12
  %97 = load ptr, ptr %96, align 8, !tbaa !20
  %98 = load ptr, ptr %4, align 8, !tbaa !13
  %99 = getelementptr inbounds nuw %struct.AVSliceThread, ptr %98, i32 0, i32 10
  %100 = load ptr, ptr %99, align 8, !tbaa !18
  call void %97(ptr noundef %100)
  br label %104

101:                                              ; preds = %91, %86
  %102 = load ptr, ptr %4, align 8, !tbaa !13
  %103 = call i32 @run_jobs(ptr noundef %102)
  store i32 %103, ptr %9, align 4, !tbaa !11
  br label %104

104:                                              ; preds = %101, %94
  %105 = load i32, ptr %9, align 4, !tbaa !11
  %106 = icmp ne i32 %105, 0
  br i1 %106, label %129, label %107

107:                                              ; preds = %104
  %108 = load ptr, ptr %4, align 8, !tbaa !13
  %109 = getelementptr inbounds nuw %struct.AVSliceThread, ptr %108, i32 0, i32 6
  %110 = call i32 @pthread_mutex_lock(ptr noundef %109) #6
  br label %111

111:                                              ; preds = %117, %107
  %112 = load ptr, ptr %4, align 8, !tbaa !13
  %113 = getelementptr inbounds nuw %struct.AVSliceThread, ptr %112, i32 0, i32 8
  %114 = load i32, ptr %113, align 8, !tbaa !26
  %115 = icmp ne i32 %114, 0
  %116 = xor i1 %115, true
  br i1 %116, label %117, label %123

117:                                              ; preds = %111
  %118 = load ptr, ptr %4, align 8, !tbaa !13
  %119 = getelementptr inbounds nuw %struct.AVSliceThread, ptr %118, i32 0, i32 7
  %120 = load ptr, ptr %4, align 8, !tbaa !13
  %121 = getelementptr inbounds nuw %struct.AVSliceThread, ptr %120, i32 0, i32 6
  %122 = call i32 @pthread_cond_wait(ptr noundef %119, ptr noundef %121)
  br label %111, !llvm.loop !40

123:                                              ; preds = %111
  %124 = load ptr, ptr %4, align 8, !tbaa !13
  %125 = getelementptr inbounds nuw %struct.AVSliceThread, ptr %124, i32 0, i32 8
  store i32 0, ptr %125, align 8, !tbaa !26
  %126 = load ptr, ptr %4, align 8, !tbaa !13
  %127 = getelementptr inbounds nuw %struct.AVSliceThread, ptr %126, i32 0, i32 6
  %128 = call i32 @pthread_mutex_unlock(ptr noundef %127) #6
  br label %129

129:                                              ; preds = %123, %104
  call void @llvm.lifetime.end.p0(i64 4, ptr %9) #6
  call void @llvm.lifetime.end.p0(i64 4, ptr %8) #6
  call void @llvm.lifetime.end.p0(i64 4, ptr %7) #6
  ret void
}