; Function Attrs: nounwind uwtable
define void @avpriv_slicethread_execute(ptr noundef %0, i32 noundef %1, i32 noundef %2) local_unnamed_addr #4 {
  %4 = icmp sgt i32 %1, 0
  br i1 %4, label %6, label %5

5:                                                ; preds = %3
  tail call void (ptr, i32, ptr, ...) @av_log(ptr noundef null, i32 noundef 0, ptr noundef nonnull @.str, ptr noundef nonnull @.str.3, ptr noundef nonnull @.str.2, i32 noundef 195) #7
  tail call void @abort() #8
  unreachable

6:                                                ; preds = %3
  %7 = getelementptr inbounds nuw i8, ptr %0, i64 16
  store i32 %1, ptr %7, align 8, !tbaa !30
  %8 = getelementptr inbounds nuw i8, ptr %0, i64 8
  %9 = load i32, ptr %8, align 8, !tbaa !16
  %. = tail call i32 @llvm.smin.i32(i32 %1, i32 %9)
  %10 = getelementptr inbounds nuw i8, ptr %0, i64 12
  store i32 %., ptr %10, align 4, !tbaa !31
  %11 = getelementptr inbounds nuw i8, ptr %0, i64 20
  store atomic i32 0, ptr %11 monotonic, align 4
  %12 = getelementptr inbounds nuw i8, ptr %0, i64 24
  store atomic i32 %., ptr %12 monotonic, align 8
  %13 = getelementptr inbounds nuw i8, ptr %0, i64 144
  %14 = load ptr, ptr %13, align 8, !tbaa !15
  %15 = icmp ne ptr %14, null
  %16 = icmp ne i32 %2, 0
  %or.cond = and i1 %16, %15
  %not.or.cond = xor i1 %or.cond, true
  %17 = sext i1 %not.or.cond to i32
  %.0 = add nsw i32 %., %17
  %18 = icmp sgt i32 %.0, 0
  br i1 %18, label %.lr.ph.preheader, label %._crit_edge

.lr.ph.preheader:                                 ; preds = %6
  %wide.trip.count = zext nneg i32 %.0 to i64
  br label %.lr.ph

.lr.ph:                                           ; preds = %.lr.ph.preheader, %.lr.ph
  %indvars.iv = phi i64 [ 0, %.lr.ph.preheader ], [ %indvars.iv.next, %.lr.ph ]
  %19 = load ptr, ptr %0, align 8, !tbaa !9
  %20 = getelementptr inbounds nuw %struct.WorkerContext, ptr %19, i64 %indvars.iv
  %21 = getelementptr inbounds nuw i8, ptr %20, i64 8
  %22 = tail call i32 @pthread_mutex_lock(ptr noundef nonnull %21) #7
  %23 = getelementptr inbounds nuw i8, ptr %20, i64 104
  store i32 0, ptr %23, align 8, !tbaa !22
  %24 = getelementptr inbounds nuw i8, ptr %20, i64 48
  %25 = tail call i32 @pthread_cond_signal(ptr noundef nonnull %24) #7
  %26 = tail call i32 @pthread_mutex_unlock(ptr noundef nonnull %21) #7
  %indvars.iv.next = add nuw nsw i64 %indvars.iv, 1
  %exitcond.not = icmp eq i64 %indvars.iv.next, %wide.trip.count
  br i1 %exitcond.not, label %._crit_edge.loopexit, label %.lr.ph, !llvm.loop !33

._crit_edge.loopexit:                             ; preds = %.lr.ph
  %.pre = load ptr, ptr %13, align 8, !tbaa !15
  br label %._crit_edge

._crit_edge:                                      ; preds = %._crit_edge.loopexit, %6
  %27 = phi ptr [ %.pre, %._crit_edge.loopexit ], [ %14, %6 ]
  %28 = icmp ne ptr %27, null
  %or.cond3 = and i1 %16, %28
  br i1 %or.cond3, label %.critedge, label %31

.critedge:                                        ; preds = %._crit_edge
  %29 = getelementptr inbounds nuw i8, ptr %0, i64 128
  %30 = load ptr, ptr %29, align 8, !tbaa !13
  tail call void %27(ptr noundef %30) #7
  br label %44

31:                                               ; preds = %._crit_edge
  %32 = load i32, ptr %7, align 8, !tbaa !30
  %33 = load i32, ptr %10, align 4, !tbaa !31
  %34 = atomicrmw add ptr %11, i32 1 acq_rel, align 4
  %35 = getelementptr inbounds nuw i8, ptr %0, i64 136
  %36 = getelementptr inbounds nuw i8, ptr %0, i64 128
  br label %37

37:                                               ; preds = %37, %31
  %.0.i = phi i32 [ %34, %31 ], [ %40, %37 ]
  %38 = load ptr, ptr %35, align 8, !tbaa !14
  %39 = load ptr, ptr %36, align 8, !tbaa !13
  tail call void %38(ptr noundef %39, i32 noundef %.0.i, i32 noundef %34, i32 noundef %32, i32 noundef %33) #7
  %40 = atomicrmw add ptr %12, i32 1 acq_rel, align 8
  %41 = icmp ult i32 %40, %32
  br i1 %41, label %37, label %run_jobs.exit, !llvm.loop !32

run_jobs.exit:                                    ; preds = %37
  %42 = add i32 %32, -1
  %43 = add i32 %42, %33
  %.not45 = icmp eq i32 %40, %43
  br i1 %.not45, label %54, label %44

44:                                               ; preds = %.critedge, %run_jobs.exit
  %45 = getelementptr inbounds nuw i8, ptr %0, i64 32
  %46 = tail call i32 @pthread_mutex_lock(ptr noundef nonnull %45) #7
  %47 = getelementptr inbounds nuw i8, ptr %0, i64 120
  %48 = load i32, ptr %47, align 8, !tbaa !18
  %.not48 = icmp eq i32 %48, 0
  br i1 %.not48, label %.lr.ph50, label %._crit_edge51

.lr.ph50:                                         ; preds = %44
  %49 = getelementptr inbounds nuw i8, ptr %0, i64 72
  br label %50

50:                                               ; preds = %.lr.ph50, %50
  %51 = tail call i32 @pthread_cond_wait(ptr noundef nonnull %49, ptr noundef nonnull %45) #7
  %52 = load i32, ptr %47, align 8, !tbaa !18
  %.not = icmp eq i32 %52, 0
  br i1 %.not, label %50, label %._crit_edge51, !llvm.loop !34

._crit_edge51:                                    ; preds = %50, %44
  store i32 0, ptr %47, align 8, !tbaa !18
  %53 = tail call i32 @pthread_mutex_unlock(ptr noundef nonnull %45) #7
  br label %54

54:                                               ; preds = %._crit_edge51, %run_jobs.exit
  ret void
}